target datalayout = "e-m:e-p270:32:32-p271:32:32-p272:64:64-i64:64-i128:128-f80:128-n8:16:32:64-S128"
target triple = "x86_64-pc-linux-gnu"

@wal_level = dso_local global i32 1, align 4
@wal_segment_size = dso_local global i32 16777216, align 4
@.str.14 = private unnamed_addr constant [7 x i8] c"xlog.c\00", align 1
@openLogFile = internal global i32 -1, align 4
@openLogSegNo = internal global i64 0, align 8
@openLogTLI = internal global i32 0, align 4
@io_direct_flags = external global i32, align 4
@.str.114 = private unnamed_addr constant [30 x i8] c"could not close file \22%s\22: %m\00", align 1
@__func__.XLogFileClose = private unnamed_addr constant [14 x i8] c"XLogFileClose\00", align 1

; Function Attrs: nounwind uwtable
define internal void @XLogFileClose() #0 {
  %1 = alloca [64 x i8], align 16
  %2 = alloca i32, align 4
  %3 = load i32, ptr @wal_level, align 4
  %4 = icmp sge i32 %3, 1
  br i1 %4, label %12, label %5

5:                                                ; preds = %0
  %6 = load i32, ptr @io_direct_flags, align 4
  %7 = and i32 %6, 2
  %8 = icmp eq i32 %7, 0
  br i1 %8, label %9, label %12

9:                                                ; preds = %5
  %10 = load i32, ptr @openLogFile, align 4
  %11 = call i32 @posix_fadvise(i32 noundef %10, i64 noundef 0, i64 noundef 0, i32 noundef 4) #16
  br label %12

12:                                               ; preds = %9, %5, %0
  %13 = load i32, ptr @openLogFile, align 4
  %14 = call i32 @close(i32 noundef %13)
  %15 = icmp ne i32 %14, 0
  br i1 %15, label %16, label %37

16:                                               ; preds = %12
  call void @llvm.lifetime.start.p0(i64 64, ptr %1) #16
  call void @llvm.lifetime.start.p0(i64 4, ptr %2) #16
  %17 = call ptr @__errno_location() #18
  %18 = load i32, ptr %17, align 4
  store i32 %18, ptr %2, align 4
  %19 = getelementptr inbounds [64 x i8], ptr %1, i64 0, i64 0
  %20 = load i32, ptr @openLogTLI, align 4
  %21 = load i64, ptr @openLogSegNo, align 8
  %22 = load i32, ptr @wal_segment_size, align 4
  call void @XLogFileName(ptr noundef %19, i32 noundef %20, i64 noundef %21, i32 noundef %22)
  %23 = load i32, ptr %2, align 4
  %24 = call ptr @__errno_location() #18
  store i32 %23, ptr %24, align 4
  br label %25

25:                                               ; preds = %16
  br i1 true, label %26, label %28

26:                                               ; preds = %25
  %27 = call zeroext i1 @errstart_cold(i32 noundef 23, ptr noundef null) #17
  br i1 %27, label %30, label %34

28:                                               ; preds = %25
  %29 = call zeroext i1 @errstart(i32 noundef 23, ptr noundef null)
  br i1 %29, label %30, label %34

30:                                               ; preds = %28, %26
  %31 = call i32 @errcode_for_file_access()
  %32 = getelementptr inbounds [64 x i8], ptr %1, i64 0, i64 0
  %33 = call i32 (ptr, ...) @errmsg(ptr noundef @.str.114, ptr noundef %32)
  call void @errfinish(ptr noundef @.str.14, i32 noundef 3684, ptr noundef @__func__.XLogFileClose)
  br label %34

34:                                               ; preds = %30, %28, %26
  unreachable

35:                                               ; No predecessors!
  br label %36

36:                                               ; preds = %35
  call void @llvm.lifetime.end.p0(i64 4, ptr %2) #16
  call void @llvm.lifetime.end.p0(i64 64, ptr %1) #16
  br label %37

37:                                               ; preds = %36, %12
  store i32 -1, ptr @openLogFile, align 4
  call void @ReleaseExternalFD()
  ret void
}