; Function Attrs: nounwind uwtable
define internal fastcc void @XLogFileClose() unnamed_addr #0 {
  %1 = alloca [64 x i8], align 16
  %2 = load i32, ptr @wal_level, align 4
  %3 = icmp sgt i32 %2, 0
  br i1 %3, label %11, label %4

4:                                                ; preds = %0
  %5 = load i32, ptr @io_direct_flags, align 4
  %6 = and i32 %5, 2
  %7 = icmp eq i32 %6, 0
  br i1 %7, label %8, label %11

8:                                                ; preds = %4
  %9 = load i32, ptr @openLogFile, align 4
  %10 = tail call i32 @posix_fadvise(i32 noundef %9, i64 noundef 0, i64 noundef 0, i32 noundef 4) #26
  br label %11

11:                                               ; preds = %8, %4, %0
  %12 = load i32, ptr @openLogFile, align 4
  %13 = tail call i32 @close(i32 noundef %12) #26
  %.not = icmp eq i32 %13, 0
  br i1 %.not, label %23, label %14

14:                                               ; preds = %11
  call void @llvm.lifetime.start.p0(i64 64, ptr nonnull %1) #26
  %15 = tail call ptr @__errno_location() #28
  %16 = load i32, ptr %15, align 4
  %17 = load i32, ptr @openLogTLI, align 4
  %18 = load i64, ptr @openLogSegNo, align 8
  %19 = load i32, ptr @wal_segment_size, align 4
  call fastcc void @XLogFileName(ptr noundef %1, i32 noundef %17, i64 noundef %18, i32 noundef %19)
  store i32 %16, ptr %15, align 4
  %20 = call zeroext i1 @errstart_cold(i32 noundef 23, ptr noundef null) #27
  call void @llvm.assume(i1 %20)
  %21 = call i32 @errcode_for_file_access() #26
  %22 = call i32 (ptr, ...) @errmsg(ptr noundef nonnull @.str.114, ptr noundef nonnull %1) #26
  call void @errfinish(ptr noundef nonnull @.str.14, i32 noundef 3684, ptr noundef nonnull @__func__.XLogFileClose) #26
  unreachable

23:                                               ; preds = %11
  store i32 -1, ptr @openLogFile, align 4
  tail call void @ReleaseExternalFD() #26
  ret void
}